Certificate:
    Data:
        Version: 3 (0x2)
        Serial Number: 11 (0xb)
    Signature Algorithm: sha256WithRSAEncryption
        Issuer: CN=openshift-signer@1486491158
        Validity
            Not Before: Feb  7 18:19:34 2017 GMT
            Not After : Feb  7 18:19:35 2019 GMT
        Subject: O=system:nodes, CN=system:node:m01.example.com
        Subject Public Key Info:
            Public Key Algorithm: rsaEncryption
                Public-Key: (2048 bit)
                Modulus:
                    00:e7:15:74:36:92:99:e5:ee:4a:9f:bb:54:21:d4:
                    8c:40:de:4c:fd:e3:f5:a1:f4:9e:b7:81:8f:7d:3b:
                    f6:c1:33:7a:d8:65:2e:84:26:c0:0a:9f:09:9a:76:
                    de:a5:c6:62:6d:11:f3:df:82:0b:9e:5b:b9:a1:f5:
                    14:df:e5:b5:0f:10:0c:65:33:8b:8b:5d:a3:0f:40:
                    7f:fd:0e:70:3d:04:20:d3:b6:ba:49:b2:1b:9f:fd:
                    37:e5:fd:d3:99:a8:fb:2f:76:df:0a:69:be:b7:21:
                    00:0e:80:73:1c:5e:0f:20:3a:df:3a:2e:19:2e:1e:
                    c4:8f:7c:8a:e6:65:71:d4:b8:f3:36:ec:18:44:64:
                    44:f1:a0:86:81:82:a3:b1:e8:88:ab:54:34:be:57:
                    f0:c6:22:6e:71:58:9c:0e:04:52:78:1d:1d:9b:11:
                    2a:e2:ad:7b:8b:7c:19:8e:0f:62:ae:1c:c4:83:98:
                    5e:c2:6c:36:64:f9:9a:41:72:e1:38:46:15:f4:7d:
                    20:68:3f:55:fc:9e:58:89:11:7b:65:56:c9:a5:20:
                    cc:bd:20:1f:2b:40:86:54:49:f6:5e:78:ca:7c:7d:
                    e9:81:16:ae:30:ad:a7:f9:21:77:72:9e:56:3d:08:
                    51:c3:33:be:85:d7:e6:18:a9:61:43:e4:a1:ec:dc:
                    c4:8f
                Exponent: 65537 (0x10001)
        X509v3 extensions:
            X509v3 Key Usage: critical
                Digital Signature, Key Encipherment
            X509v3 Extended Key Usage: 
                TLS Web Client Authentication
            X509v3 Basic Constraints: critical
                CA:FALSE
    Signature Algorithm: sha256WithRSAEncryption
         cd:63:7b:12:ed:b8:e3:93:b0:e3:df:11:a9:7f:20:2c:df:3f:
         d6:97:de:6d:11:ff:21:8f:8f:04:2f:e3:78:ce:73:cd:4d:70:
         be:5d:f8:27:83:31:7d:fa:b4:a0:31:14:87:be:c2:f5:e8:d2:
         45:10:3b:34:ca:dc:3e:e8:97:8c:76:61:3b:41:e2:e0:f3:34:
         4e:6d:56:1e:5d:5a:2d:8b:ac:a6:12:a9:90:c8:ae:12:8e:30:
         e9:89:45:64:77:00:51:28:a5:a6:86:42:9c:6c:0f:f1:52:7d:
         9e:4c:83:43:8c:30:13:c7:00:1c:4c:ae:c8:ac:7a:b1:ce:d6:
         78:78:6b:1d:fe:48:8d:22:ec:97:a7:81:5b:01:e0:1f:d7:c6:
         0f:4b:c3:d2:43:5f:7f:d7:31:c2:3e:7f:22:d5:c3:97:2d:3b:
         ad:81:6a:5b:a5:8e:94:fe:1e:47:5b:45:69:c7:f1:aa:fb:4e:
         67:09:8f:34:e8:fd:3c:97:39:e3:8b:91:ba:33:c7:40:50:2b:
         5e:9d:fc:26:ed:2e:89:89:f8:f3:b8:71:dc:02:36:cd:99:e8:
         71:92:3d:32:fb:4b:dc:b4:a5:cb:79:d8:dd:24:7c:97:f1:64:
         65:cc:b1:6f:8d:eb:64:b6:bd:54:97:11:e9:0c:47:41:89:80:
         99:cb:35:2a
-----BEGIN CERTIFICATE-----
MIIDEzCCAfugAwIBAgIBCzANBgkqhkiG9w0BAQsFADAmMSQwIgYDVQQDDBtvcGVu
c2hpZnQtc2lnbmVyQDE0ODY0OTExNTgwHhcNMTcwMjA3MTgxOTM0WhcNMTkwMjA3
MTgxOTM1WjA9MRUwEwYDVQQKEwxzeXN0ZW06bm9kZXMxJDAiBgNVBAMTG3N5c3Rl
bTpub2RlOm0wMS5leGFtcGxlLmNvbTCCASIwDQYJKoZIhvcNAQEBBQADggEPADCC
AQoCggEBAOcVdDaSmeXuSp+7VCHUjEDeTP3j9aH0nreBj3079sEzethlLoQmwAqf
CZp23qXGYm0R89+CC55buaH1FN/ltQ8QDGUzi4tdow9Af/0OcD0EINO2ukmyG5/9
N+X905mo+y923wppvrchAA6AcxxeDyA63zouGS4exI98iuZlcdS48zbsGERkRPGg
hoGCo7HoiKtUNL5X8MYibnFYnA4EUngdHZsRKuKte4t8GY4PYq4cxIOYXsJsNmT5
mkFy4ThGFfR9IGg/VfyeWIkRe2VWyaUgzL0gHytAhlRJ9l54ynx96YEWrjCtp/kh
d3KeVj0IUcMzvoXX5hipYUPkoezcxI8CAwEAAaM1MDMwDgYDVR0PAQH/BAQDAgWg
MBMGA1UdJQQMMAoGCCsGAQUFBwMCMAwGA1UdEwEB/wQCMAAwDQYJKoZIhvcNAQEL
BQADggEBAM1jexLtuOOTsOPfEal/ICzfP9aX3m0R/yGPjwQv43jOc81NcL5d+CeD
MX36tKAxFIe+wvXo0kUQOzTK3D7ol4x2YTtB4uDzNE5tVh5dWi2LrKYSqZDIrhKO
MOmJRWR3AFEopaaGQpxsD/FSfZ5Mg0OMMBPHABxMrsiserHO1nh4ax3+SI0i7Jen
gVsB4B/Xxg9Lw9JDX3/XMcI+fyLVw5ctO62BaluljpT+HkdbRWnH8ar7TmcJjzTo
/TyXOeOLkbozx0BQK16d/CbtLomJ+PO4cdwCNs2Z6HGSPTL7S9y0pct52N0kfJfx
ZGXMsW+N62S2vVSXEekMR0GJgJnLNSo=
-----END CERTIFICATE-----
